target datalayout = "e-m:e-p270:32:32-p271:32:32-p272:64:64-i64:64-f80:128-n8:16:32:64-S128"
target triple = "x86_64-pc-linux-gnu"

@main.s = internal global [500 x i8] zeroinitializer, align 16
@main.o = internal global [500 x [5 x i8]] zeroinitializer, align 16
@main.l1 = internal global [7 x i8] zeroinitializer, align 1
@.str = private unnamed_addr constant [3 x i8] c"%d\00", align 1
@.str.1 = private unnamed_addr constant [4 x i8] c"NO\0A\00", align 1
@.str.2 = private unnamed_addr constant [4 x i8] c"%d\0A\00", align 1
@.str.3 = private unnamed_addr constant [3 x i8] c"%c\00", align 1
@.str.4 = private unnamed_addr constant [2 x i8] c"\0A\00", align 1

; Function Attrs: noinline nounwind uwtable
define dso_local i32 @main() #0 {
  %1 = alloca i32, align 4
  %2 = alloca i32, align 4
  %3 = alloca i32, align 4
  %4 = alloca i32, align 4
  %5 = alloca [500 x i32], align 16
  %6 = alloca i32, align 4
  %7 = alloca i32, align 4
  %8 = alloca i32, align 4
  %9 = alloca i32, align 4
  %10 = alloca i32, align 4
  %11 = alloca i32, align 4
  %12 = alloca [500 x i32], align 16
  %13 = alloca i32, align 4
  %14 = alloca i32, align 4
  store i32 0, i32* %1, align 4
  store i32 0, i32* %8, align 4
  store i32 0, i32* %10, align 4
  store i32 0, i32* %11, align 4
  %15 = bitcast [500 x i32]* %12 to i8*
  call void @llvm.memset.p0i8.i64(i8* align 16 %15, i8 0, i64 2000, i1 false)
  store i32 0, i32* %14, align 4
  %16 = call i32 (i8*, ...) @__isoc99_scanf(i8* getelementptr inbounds ([3 x i8], [3 x i8]* @.str, i64 0, i64 0), i32* %2)
  %17 = call i32 (i8*, ...) bitcast (i32 (...)* @gets to i32 (i8*, ...)*)(i8* getelementptr inbounds ([7 x i8], [7 x i8]* @main.l1, i64 0, i64 0))
  %18 = call i32 (i8*, ...) bitcast (i32 (...)* @gets to i32 (i8*, ...)*)(i8* getelementptr inbounds ([500 x i8], [500 x i8]* @main.s, i64 0, i64 0))
  store i32 0, i32* %3, align 4
  br label %19

19:                                               ; preds = %51, %0
  %20 = load i32, i32* %3, align 4
  %21 = load i32, i32* %2, align 4
  %22 = add nsw i32 %20, %21
  %23 = sub nsw i32 %22, 1
  %24 = sext i32 %23 to i64
  %25 = getelementptr inbounds [500 x i8], [500 x i8]* @main.s, i64 0, i64 %24
  %26 = load i8, i8* %25, align 1
  %27 = sext i8 %26 to i32
  %28 = icmp ne i32 %27, 0
  br i1 %28, label %29, label %54

29:                                               ; preds = %19
  store i32 0, i32* %4, align 4
  br label %30

30:                                               ; preds = %47, %29
  %31 = load i32, i32* %4, align 4
  %32 = load i32, i32* %2, align 4
  %33 = icmp slt i32 %31, %32
  br i1 %33, label %34, label %50

34:                                               ; preds = %30
  %35 = load i32, i32* %3, align 4
  %36 = load i32, i32* %4, align 4
  %37 = add nsw i32 %35, %36
  %38 = sext i32 %37 to i64
  %39 = getelementptr inbounds [500 x i8], [500 x i8]* @main.s, i64 0, i64 %38
  %40 = load i8, i8* %39, align 1
  %41 = load i32, i32* %3, align 4
  %42 = sext i32 %41 to i64
  %43 = getelementptr inbounds [500 x [5 x i8]], [500 x [5 x i8]]* @main.o, i64 0, i64 %42
  %44 = load i32, i32* %4, align 4
  %45 = sext i32 %44 to i64
  %46 = getelementptr inbounds [5 x i8], [5 x i8]* %43, i64 0, i64 %45
  store i8 %40, i8* %46, align 1
  br label %47

47:                                               ; preds = %34
  %48 = load i32, i32* %4, align 4
  %49 = add nsw i32 %48, 1
  store i32 %49, i32* %4, align 4
  br label %30

50:                                               ; preds = %30
  br label %51

51:                                               ; preds = %50
  %52 = load i32, i32* %3, align 4
  %53 = add nsw i32 %52, 1
  store i32 %53, i32* %3, align 4
  br label %19

54:                                               ; preds = %19
  %55 = load i32, i32* %3, align 4
  store i32 %55, i32* %7, align 4
  store i32 0, i32* %3, align 4
  br label %56

56:                                               ; preds = %108, %54
  %57 = load i32, i32* %3, align 4
  %58 = load i32, i32* %7, align 4
  %59 = icmp slt i32 %57, %58
  br i1 %59, label %60, label %111

60:                                               ; preds = %56
  store i32 0, i32* %4, align 4
  br label %61

61:                                               ; preds = %100, %60
  %62 = load i32, i32* %4, align 4
  %63 = load i32, i32* %7, align 4
  %64 = icmp slt i32 %62, %63
  br i1 %64, label %65, label %103

65:                                               ; preds = %61
  store i32 1, i32* %9, align 4
  store i32 0, i32* %6, align 4
  br label %66

66:                                               ; preds = %90, %65
  %67 = load i32, i32* %6, align 4
  %68 = load i32, i32* %2, align 4
  %69 = icmp slt i32 %67, %68
  br i1 %69, label %70, label %93

70:                                               ; preds = %66
  %71 = load i32, i32* %3, align 4
  %72 = sext i32 %71 to i64
  %73 = getelementptr inbounds [500 x [5 x i8]], [500 x [5 x i8]]* @main.o, i64 0, i64 %72
  %74 = load i32, i32* %6, align 4
  %75 = sext i32 %74 to i64
  %76 = getelementptr inbounds [5 x i8], [5 x i8]* %73, i64 0, i64 %75
  %77 = load i8, i8* %76, align 1
  %78 = sext i8 %77 to i32
  %79 = load i32, i32* %4, align 4
  %80 = sext i32 %79 to i64
  %81 = getelementptr inbounds [500 x [5 x i8]], [500 x [5 x i8]]* @main.o, i64 0, i64 %80
  %82 = load i32, i32* %6, align 4
  %83 = sext i32 %82 to i64
  %84 = getelementptr inbounds [5 x i8], [5 x i8]* %81, i64 0, i64 %83
  %85 = load i8, i8* %84, align 1
  %86 = sext i8 %85 to i32
  %87 = icmp ne i32 %78, %86
  br i1 %87, label %88, label %89

88:                                               ; preds = %70
  store i32 0, i32* %9, align 4
  br label %93

89:                                               ; preds = %70
  br label %90

90:                                               ; preds = %89
  %91 = load i32, i32* %6, align 4
  %92 = add nsw i32 %91, 1
  store i32 %92, i32* %6, align 4
  br label %66

93:                                               ; preds = %88, %66
  %94 = load i32, i32* %9, align 4
  %95 = icmp eq i32 %94, 1
  br i1 %95, label %96, label %99

96:                                               ; preds = %93
  %97 = load i32, i32* %8, align 4
  %98 = add nsw i32 %97, 1
  store i32 %98, i32* %8, align 4
  br label %99

99:                                               ; preds = %96, %93
  br label %100

100:                                              ; preds = %99
  %101 = load i32, i32* %4, align 4
  %102 = add nsw i32 %101, 1
  store i32 %102, i32* %4, align 4
  br label %61

103:                                              ; preds = %61
  %104 = load i32, i32* %8, align 4
  %105 = load i32, i32* %3, align 4
  %106 = sext i32 %105 to i64
  %107 = getelementptr inbounds [500 x i32], [500 x i32]* %5, i64 0, i64 %106
  store i32 %104, i32* %107, align 4
  store i32 0, i32* %8, align 4
  br label %108

108:                                              ; preds = %103
  %109 = load i32, i32* %3, align 4
  %110 = add nsw i32 %109, 1
  store i32 %110, i32* %3, align 4
  br label %56

111:                                              ; preds = %56
  store i32 0, i32* %3, align 4
  br label %112

112:                                              ; preds = %129, %111
  %113 = load i32, i32* %3, align 4
  %114 = load i32, i32* %7, align 4
  %115 = icmp slt i32 %113, %114
  br i1 %115, label %116, label %132

116:                                              ; preds = %112
  %117 = load i32, i32* %10, align 4
  %118 = load i32, i32* %3, align 4
  %119 = sext i32 %118 to i64
  %120 = getelementptr inbounds [500 x i32], [500 x i32]* %5, i64 0, i64 %119
  %121 = load i32, i32* %120, align 4
  %122 = icmp slt i32 %117, %121
  br i1 %122, label %123, label %128

123:                                              ; preds = %116
  %124 = load i32, i32* %3, align 4
  %125 = sext i32 %124 to i64
  %126 = getelementptr inbounds [500 x i32], [500 x i32]* %5, i64 0, i64 %125
  %127 = load i32, i32* %126, align 4
  store i32 %127, i32* %10, align 4
  br label %128

128:                                              ; preds = %123, %116
  br label %129

129:                                              ; preds = %128
  %130 = load i32, i32* %3, align 4
  %131 = add nsw i32 %130, 1
  store i32 %131, i32* %3, align 4
  br label %112

132:                                              ; preds = %112
  %133 = load i32, i32* %10, align 4
  %134 = icmp sle i32 %133, 1
  br i1 %134, label %135, label %137

135:                                              ; preds = %132
  %136 = call i32 (i8*, ...) @printf(i8* getelementptr inbounds ([4 x i8], [4 x i8]* @.str.1, i64 0, i64 0))
  br label %210

137:                                              ; preds = %132
  %138 = load i32, i32* %10, align 4
  %139 = call i32 (i8*, ...) @printf(i8* getelementptr inbounds ([4 x i8], [4 x i8]* @.str.2, i64 0, i64 0), i32 %138)
  store i32 0, i32* %3, align 4
  br label %140

140:                                              ; preds = %206, %137
  %141 = load i32, i32* %3, align 4
  %142 = load i32, i32* %7, align 4
  %143 = icmp slt i32 %141, %142
  br i1 %143, label %144, label %209

144:                                              ; preds = %140
  store i32 0, i32* %14, align 4
  %145 = load i32, i32* %10, align 4
  %146 = load i32, i32* %3, align 4
  %147 = sext i32 %146 to i64
  %148 = getelementptr inbounds [500 x i32], [500 x i32]* %5, i64 0, i64 %147
  %149 = load i32, i32* %148, align 4
  %150 = icmp eq i32 %145, %149
  br i1 %150, label %151, label %199

151:                                              ; preds = %144
  store i32 1, i32* %13, align 4
  br label %152

152:                                              ; preds = %172, %151
  %153 = load i32, i32* %13, align 4
  %154 = load i32, i32* %11, align 4
  %155 = icmp sle i32 %153, %154
  br i1 %155, label %156, label %175

156:                                              ; preds = %152
  %157 = load i32, i32* %3, align 4
  %158 = sext i32 %157 to i64
  %159 = getelementptr inbounds [500 x [5 x i8]], [500 x [5 x i8]]* @main.o, i64 0, i64 %158
  %160 = getelementptr inbounds [5 x i8], [5 x i8]* %159, i64 0, i64 0
  %161 = load i32, i32* %13, align 4
  %162 = sext i32 %161 to i64
  %163 = getelementptr inbounds [500 x i32], [500 x i32]* %12, i64 0, i64 %162
  %164 = load i32, i32* %163, align 4
  %165 = sext i32 %164 to i64
  %166 = getelementptr inbounds [500 x [5 x i8]], [500 x [5 x i8]]* @main.o, i64 0, i64 %165
  %167 = getelementptr inbounds [5 x i8], [5 x i8]* %166, i64 0, i64 0
  %168 = call i32 @strcmp(i8* %160, i8* %167) #4
  %169 = icmp eq i32 0, %168
  br i1 %169, label %170, label %171

170:                                              ; preds = %156
  store i32 1, i32* %14, align 4
  br label %175

171:                                              ; preds = %156
  br label %172

172:                                              ; preds = %171
  %173 = load i32, i32* %13, align 4
  %174 = add nsw i32 %173, 1
  store i32 %174, i32* %13, align 4
  br label %152

175:                                              ; preds = %170, %152
  %176 = load i32, i32* %14, align 4
  %177 = icmp eq i32 %176, 0
  br i1 %177, label %178, label %198

178:                                              ; preds = %175
  store i32 0, i32* %6, align 4
  br label %179

179:                                              ; preds = %193, %178
  %180 = load i32, i32* %6, align 4
  %181 = load i32, i32* %2, align 4
  %182 = icmp slt i32 %180, %181
  br i1 %182, label %183, label %196

183:                                              ; preds = %179
  %184 = load i32, i32* %3, align 4
  %185 = sext i32 %184 to i64
  %186 = getelementptr inbounds [500 x [5 x i8]], [500 x [5 x i8]]* @main.o, i64 0, i64 %185
  %187 = load i32, i32* %6, align 4
  %188 = sext i32 %187 to i64
  %189 = getelementptr inbounds [5 x i8], [5 x i8]* %186, i64 0, i64 %188
  %190 = load i8, i8* %189, align 1
  %191 = sext i8 %190 to i32
  %192 = call i32 (i8*, ...) @printf(i8* getelementptr inbounds ([3 x i8], [3 x i8]* @.str.3, i64 0, i64 0), i32 %191)
  br label %193

193:                                              ; preds = %183
  %194 = load i32, i32* %6, align 4
  %195 = add nsw i32 %194, 1
  store i32 %195, i32* %6, align 4
  br label %179

196:                                              ; preds = %179
  %197 = call i32 (i8*, ...) @printf(i8* getelementptr inbounds ([2 x i8], [2 x i8]* @.str.4, i64 0, i64 0))
  br label %198

198:                                              ; preds = %196, %175
  br label %199

199:                                              ; preds = %198, %144
  %200 = load i32, i32* %11, align 4
  %201 = add nsw i32 %200, 1
  store i32 %201, i32* %11, align 4
  %202 = load i32, i32* %3, align 4
  %203 = load i32, i32* %11, align 4
  %204 = sext i32 %203 to i64
  %205 = getelementptr inbounds [500 x i32], [500 x i32]* %12, i64 0, i64 %204
  store i32 %202, i32* %205, align 4
  br label %206

206:                                              ; preds = %199
  %207 = load i32, i32* %3, align 4
  %208 = add nsw i32 %207, 1
  store i32 %208, i32* %3, align 4
  br label %140

209:                                              ; preds = %140
  br label %210

210:                                              ; preds = %209, %135
  %211 = load i32, i32* %1, align 4
  ret i32 %211
}